target datalayout = "e-m:e-p270:32:32-p271:32:32-p272:64:64-i64:64-i128:128-f80:128-n8:16:32:64-S128"
target triple = "x86_64-pc-linux-gnu"

%struct._packet_info = type { ptr, ptr, i32, i32, %struct.nstime_t, %struct.nstime_t, %struct.nstime_t, i8, ptr, ptr, ptr, ptr, %struct._address, %struct._address, %struct._address, %struct._address, %struct._address, %struct._address, i32, ptr, i8, [3 x i8], %struct.anon, i32, i32, i32, i32, ptr, i8, ptr, ptr, i16, i16, i32, i32, i16, i32, i32, ptr, ptr, ptr, i8, i8, i16, i16, i16, i32, i16, i16, ptr, ptr, ptr, ptr, ptr, i32, i32 }
%struct.nstime_t = type { i64, i32 }
%struct._address = type { i32, i32, ptr, ptr }
%struct.anon = type { i8, [3 x i8] }

@xml_handle = internal global ptr null, align 8
@media_type_dissector_table = internal global ptr null, align 8
@.str.36 = private unnamed_addr constant [10 x i8] c"video/mp4\00", align 1
@.str.37 = private unnamed_addr constant [2 x i8] c"/\00", align 1

; Function Attrs: null_pointer_is_valid sspstrong uwtable
define internal void @try_decode_payload(ptr noundef %0, ptr noundef %1, ptr noundef %2) #0 {
  %4 = alloca ptr, align 8
  %5 = alloca ptr, align 8
  %6 = alloca ptr, align 8
  %7 = alloca i32, align 4
  %8 = alloca i32, align 4
  %9 = alloca ptr, align 8
  %10 = alloca ptr, align 8
  %11 = alloca i32, align 4
  %12 = alloca ptr, align 8
  store ptr %0, ptr %4, align 8
  store ptr %1, ptr %5, align 8
  store ptr %2, ptr %6, align 8
  call void @llvm.lifetime.start.p0(i64 4, ptr %7) #4
  %13 = load ptr, ptr %4, align 8
  %14 = call i32 @tvb_get_uint32(ptr noundef %13, i32 noundef 0, i32 noundef 0)
  store i32 %14, ptr %7, align 4
  %15 = load i32, ptr %7, align 4
  %16 = icmp eq i32 %15, 1010792557
  br i1 %16, label %17, label %23

17:                                               ; preds = %3
  %18 = load ptr, ptr @xml_handle, align 8
  %19 = load ptr, ptr %4, align 8
  %20 = load ptr, ptr %5, align 8
  %21 = load ptr, ptr %6, align 8
  %22 = call i32 @call_dissector(ptr noundef %18, ptr noundef %19, ptr noundef %20, ptr noundef %21)
  br label %81

23:                                               ; preds = %3
  call void @llvm.lifetime.start.p0(i64 4, ptr %8) #4
  %24 = load ptr, ptr %4, align 8
  %25 = call i32 @tvb_get_uint32(ptr noundef %24, i32 noundef 4, i32 noundef 0)
  store i32 %25, ptr %8, align 4
  %26 = load i32, ptr %8, align 4
  %27 = icmp eq i32 %26, 1718909296
  br i1 %27, label %34, label %28

28:                                               ; preds = %23
  %29 = load i32, ptr %8, align 4
  %30 = icmp eq i32 %29, 1936286840
  br i1 %30, label %34, label %31

31:                                               ; preds = %28
  %32 = load i32, ptr %8, align 4
  %33 = icmp eq i32 %32, 1937013104
  br i1 %33, label %34, label %80

34:                                               ; preds = %31, %28, %23
  call void @llvm.lifetime.start.p0(i64 8, ptr %9) #4
  %35 = load ptr, ptr %5, align 8
  %36 = getelementptr inbounds nuw %struct._packet_info, ptr %35, i32 0, i32 51
  %37 = load ptr, ptr %36, align 8
  %38 = load ptr, ptr %5, align 8
  %39 = getelementptr inbounds nuw %struct._packet_info, ptr %38, i32 0, i32 1
  %40 = load ptr, ptr %39, align 8
  %41 = call ptr @col_get_text(ptr noundef %40, i32 noundef 25)
  %42 = call noalias ptr @wmem_strdup(ptr noundef %37, ptr noundef %41)
  store ptr %42, ptr %9, align 8
  call void @llvm.lifetime.start.p0(i64 8, ptr %10) #4
  %43 = load ptr, ptr %5, align 8
  %44 = getelementptr inbounds nuw %struct._packet_info, ptr %43, i32 0, i32 51
  %45 = load ptr, ptr %44, align 8
  %46 = load ptr, ptr %5, align 8
  %47 = getelementptr inbounds nuw %struct._packet_info, ptr %46, i32 0, i32 1
  %48 = load ptr, ptr %47, align 8
  %49 = call ptr @col_get_text(ptr noundef %48, i32 noundef 35)
  %50 = call noalias ptr @wmem_strdup(ptr noundef %45, ptr noundef %49)
  store ptr %50, ptr %10, align 8
  call void @llvm.lifetime.start.p0(i64 4, ptr %11) #4
  %51 = load ptr, ptr @media_type_dissector_table, align 8
  %52 = load ptr, ptr %4, align 8
  %53 = load ptr, ptr %5, align 8
  %54 = load ptr, ptr %6, align 8
  %55 = call i32 @dissector_try_string_with_data(ptr noundef %51, ptr noundef @.str.36, ptr noundef %52, ptr noundef %53, ptr noundef %54, i1 noundef zeroext true, ptr noundef null)
  store i32 %55, ptr %11, align 4
  call void @llvm.lifetime.start.p0(i64 8, ptr %12) #4
  %56 = load ptr, ptr %5, align 8
  %57 = getelementptr inbounds nuw %struct._packet_info, ptr %56, i32 0, i32 51
  %58 = load ptr, ptr %57, align 8
  %59 = load ptr, ptr %5, align 8
  %60 = getelementptr inbounds nuw %struct._packet_info, ptr %59, i32 0, i32 1
  %61 = load ptr, ptr %60, align 8
  %62 = call ptr @col_get_text(ptr noundef %61, i32 noundef 35)
  %63 = call noalias ptr @wmem_strdup(ptr noundef %58, ptr noundef %62)
  store ptr %63, ptr %12, align 8
  %64 = load ptr, ptr %5, align 8
  %65 = getelementptr inbounds nuw %struct._packet_info, ptr %64, i32 0, i32 1
  %66 = load ptr, ptr %65, align 8
  %67 = load ptr, ptr %9, align 8
  call void @col_set_str(ptr noundef %66, i32 noundef 25, ptr noundef %67)
  %68 = load ptr, ptr %5, align 8
  %69 = getelementptr inbounds nuw %struct._packet_info, ptr %68, i32 0, i32 1
  %70 = load ptr, ptr %69, align 8
  %71 = load ptr, ptr %10, align 8
  call void @col_set_str(ptr noundef %70, i32 noundef 35, ptr noundef %71)
  %72 = load i32, ptr %11, align 4
  %73 = icmp sgt i32 %72, 0
  br i1 %73, label %74, label %79

74:                                               ; preds = %34
  %75 = load ptr, ptr %5, align 8
  %76 = getelementptr inbounds nuw %struct._packet_info, ptr %75, i32 0, i32 1
  %77 = load ptr, ptr %76, align 8
  %78 = load ptr, ptr %12, align 8
  call void @col_append_sep_str(ptr noundef %77, i32 noundef 35, ptr noundef @.str.37, ptr noundef %78)
  br label %79

79:                                               ; preds = %74, %34
  call void @llvm.lifetime.end.p0(i64 8, ptr %12) #4
  call void @llvm.lifetime.end.p0(i64 4, ptr %11) #4
  call void @llvm.lifetime.end.p0(i64 8, ptr %10) #4
  call void @llvm.lifetime.end.p0(i64 8, ptr %9) #4
  br label %80

80:                                               ; preds = %79, %31
  call void @llvm.lifetime.end.p0(i64 4, ptr %8) #4
  br label %81

81:                                               ; preds = %80, %17
  call void @llvm.lifetime.end.p0(i64 4, ptr %7) #4
  ret void
}