; Function Attrs: null_pointer_is_valid sspstrong uwtable
define internal fastcc void @try_decode_payload(ptr noundef %0, ptr noundef %1, ptr noundef %2) unnamed_addr #0 {
  %4 = tail call i32 @tvb_get_uint32(ptr noundef %0, i32 noundef 0, i32 noundef 0)
  %5 = icmp eq i32 %4, 1010792557
  br i1 %5, label %6, label %9

6:                                                ; preds = %3
  %7 = load ptr, ptr @xml_handle, align 8
  %8 = tail call i32 @call_dissector(ptr noundef %7, ptr noundef %0, ptr noundef %1, ptr noundef %2)
  br label %33

9:                                                ; preds = %3
  %10 = tail call i32 @tvb_get_uint32(ptr noundef %0, i32 noundef 4, i32 noundef 0)
  switch i32 %10, label %33 [
    i32 1937013104, label %11
    i32 1936286840, label %11
    i32 1718909296, label %11
  ]

11:                                               ; preds = %9, %9, %9
  %12 = getelementptr inbounds nuw i8, ptr %1, i64 408
  %13 = load ptr, ptr %12, align 8
  %14 = getelementptr inbounds nuw i8, ptr %1, i64 8
  %15 = load ptr, ptr %14, align 8
  %16 = tail call ptr @col_get_text(ptr noundef %15, i32 noundef 25)
  %17 = tail call noalias ptr @wmem_strdup(ptr noundef %13, ptr noundef %16)
  %18 = load ptr, ptr %12, align 8
  %19 = load ptr, ptr %14, align 8
  %20 = tail call ptr @col_get_text(ptr noundef %19, i32 noundef 35)
  %21 = tail call noalias ptr @wmem_strdup(ptr noundef %18, ptr noundef %20)
  %22 = load ptr, ptr @media_type_dissector_table, align 8
  %23 = tail call i32 @dissector_try_string_with_data(ptr noundef %22, ptr noundef nonnull @.str.36, ptr noundef %0, ptr noundef %1, ptr noundef %2, i1 noundef zeroext true, ptr noundef null)
  %24 = load ptr, ptr %12, align 8
  %25 = load ptr, ptr %14, align 8
  %26 = tail call ptr @col_get_text(ptr noundef %25, i32 noundef 35)
  %27 = tail call noalias ptr @wmem_strdup(ptr noundef %24, ptr noundef %26)
  %28 = load ptr, ptr %14, align 8
  tail call void @col_set_str(ptr noundef %28, i32 noundef 25, ptr noundef %17)
  %29 = load ptr, ptr %14, align 8
  tail call void @col_set_str(ptr noundef %29, i32 noundef 35, ptr noundef %21)
  %30 = icmp sgt i32 %23, 0
  br i1 %30, label %31, label %33

31:                                               ; preds = %11
  %32 = load ptr, ptr %14, align 8
  tail call void @col_append_sep_str(ptr noundef %32, i32 noundef 35, ptr noundef nonnull @.str.37, ptr noundef %27)
  br label %33

33:                                               ; preds = %9, %31, %11, %6
  ret void
}